target datalayout = "e-m:e-p270:32:32-p271:32:32-p272:64:64-i64:64-i128:128-f80:128-n8:16:32:64-S128"
target triple = "x86_64-pc-linux-gnu"

%struct._object = type { %union.anon, ptr }
%union.anon = type { i64 }
%struct.PyVarObject = type { %struct._object, i64 }
%struct._ts = type { ptr, ptr, ptr, i64, %struct.anon, i32, i32, i32, i32, i32, i32, i32, i32, ptr, ptr, ptr, ptr, ptr, ptr, ptr, ptr, i32, ptr, i64, i64, ptr, i64, i32, ptr, ptr, ptr, i64, i64, ptr, ptr, ptr, %struct._err_stackitem, ptr, i64, ptr, ptr }
%struct.anon = type { i32 }
%struct._err_stackitem = type { ptr, ptr }
%struct._typeobject = type { %struct.PyVarObject, ptr, i64, i64, ptr, i64, ptr, ptr, ptr, ptr, ptr, ptr, ptr, ptr, ptr, ptr, ptr, ptr, ptr, i64, ptr, ptr, ptr, ptr, i64, ptr, ptr, ptr, ptr, ptr, ptr, ptr, ptr, ptr, i64, ptr, ptr, ptr, ptr, ptr, ptr, ptr, ptr, ptr, ptr, ptr, i32, ptr, ptr, i8, i16 }
%struct.anon.5 = type { i32, i32 }

@VersionInfoType = internal global %struct._typeobject zeroinitializer, align 8
@.str.500 = private unnamed_addr constant [6 x i8] c"alpha\00", align 1

; Function Attrs: alwaysinline nounwind uwtable
define internal i32 @_Py_IsImmortal(ptr noundef %0) #5 {
  %2 = alloca ptr, align 8
  store ptr %0, ptr %2, align 8, !tbaa !9
  %3 = load ptr, ptr %2, align 8, !tbaa !9
  %4 = getelementptr inbounds nuw %struct._object, ptr %3, i32 0, i32 0
  %5 = getelementptr inbounds nuw %struct.anon.5, ptr %4, i32 0, i32 0
  %6 = load i32, ptr %5, align 8, !tbaa !102
  %7 = icmp slt i32 %6, 0
  %8 = zext i1 %7 to i32
  ret i32 %8
}

; Function Attrs: inlinehint nounwind uwtable
define internal ptr @_Py_TYPE(ptr noundef %0) #3 {
  %2 = alloca ptr, align 8
  store ptr %0, ptr %2, align 8, !tbaa !9
  %3 = load ptr, ptr %2, align 8, !tbaa !9
  %4 = getelementptr inbounds nuw %struct._object, ptr %3, i32 0, i32 1
  %5 = load ptr, ptr %4, align 8, !tbaa !206
  ret ptr %5
}

; Function Attrs: alwaysinline nounwind uwtable
define internal void @Py_DECREF(ptr noundef %0) #5 {
  %2 = alloca ptr, align 8
  store ptr %0, ptr %2, align 8, !tbaa !9
  %3 = load ptr, ptr %2, align 8, !tbaa !9
  %4 = call i32 @_Py_IsImmortal(ptr noundef %3)
  %5 = icmp ne i32 %4, 0
  br i1 %5, label %6, label %7

6:                                                ; preds = %1
  br label %16

7:                                                ; preds = %1
  %8 = load ptr, ptr %2, align 8, !tbaa !9
  %9 = getelementptr inbounds nuw %struct._object, ptr %8, i32 0, i32 0
  %10 = getelementptr inbounds nuw %struct.anon.5, ptr %9, i32 0, i32 0
  %11 = load i32, ptr %10, align 8, !tbaa !102
  %12 = add i32 %11, -1
  store i32 %12, ptr %10, align 8, !tbaa !102
  %13 = icmp eq i32 %12, 0
  br i1 %13, label %14, label %16

14:                                               ; preds = %7
  %15 = load ptr, ptr %2, align 8, !tbaa !9
  call void @_Py_Dealloc(ptr noundef %15)
  br label %16

16:                                               ; preds = %6, %14, %7
  ret void
}

; Function Attrs: inlinehint nounwind uwtable
define internal ptr @_PyErr_Occurred(ptr noundef %0) #3 {
  %2 = alloca ptr, align 8
  %3 = alloca ptr, align 8
  store ptr %0, ptr %3, align 8, !tbaa !4
  %4 = load ptr, ptr %3, align 8, !tbaa !4
  %5 = getelementptr inbounds nuw %struct._ts, ptr %4, i32 0, i32 18
  %6 = load ptr, ptr %5, align 8, !tbaa !96
  %7 = icmp eq ptr %6, null
  br i1 %7, label %8, label %9

8:                                                ; preds = %1
  store ptr null, ptr %2, align 8
  br label %14

9:                                                ; preds = %1
  %10 = load ptr, ptr %3, align 8, !tbaa !4
  %11 = getelementptr inbounds nuw %struct._ts, ptr %10, i32 0, i32 18
  %12 = load ptr, ptr %11, align 8, !tbaa !96
  %13 = call ptr @_Py_TYPE(ptr noundef %12)
  store ptr %13, ptr %2, align 8
  br label %14

14:                                               ; preds = %9, %8
  %15 = load ptr, ptr %2, align 8
  ret ptr %15
}

; Function Attrs: nounwind uwtable
define internal ptr @make_version_info(ptr noundef %0) #0 {
  %2 = alloca ptr, align 8
  %3 = alloca ptr, align 8
  %4 = alloca ptr, align 8
  %5 = alloca ptr, align 8
  %6 = alloca i32, align 4
  %7 = alloca i32, align 4
  %8 = alloca ptr, align 8
  %9 = alloca ptr, align 8
  store ptr %0, ptr %3, align 8, !tbaa !4
  call void @llvm.lifetime.start.p0(i64 8, ptr %4) #12
  call void @llvm.lifetime.start.p0(i64 8, ptr %5) #12
  call void @llvm.lifetime.start.p0(i64 4, ptr %6) #12
  store i32 0, ptr %6, align 4, !tbaa !97
  %10 = call ptr @PyStructSequence_New(ptr noundef @VersionInfoType)
  store ptr %10, ptr %4, align 8, !tbaa !9
  %11 = load ptr, ptr %4, align 8, !tbaa !9
  %12 = icmp eq ptr %11, null
  br i1 %12, label %13, label %14

13:                                               ; preds = %1
  store ptr null, ptr %2, align 8
  store i32 1, ptr %7, align 4
  br label %58

14:                                               ; preds = %1
  store ptr @.str.500, ptr %5, align 8, !tbaa !94
  %15 = load ptr, ptr %4, align 8, !tbaa !9
  %16 = load i32, ptr %6, align 4, !tbaa !97
  %17 = add i32 %16, 1
  store i32 %17, ptr %6, align 4, !tbaa !97
  %18 = sext i32 %16 to i64
  %19 = call ptr @PyLong_FromLong(i64 noundef 3)
  call void @PyStructSequence_SetItem(ptr noundef %15, i64 noundef %18, ptr noundef %19)
  %20 = load ptr, ptr %4, align 8, !tbaa !9
  %21 = load i32, ptr %6, align 4, !tbaa !97
  %22 = add i32 %21, 1
  store i32 %22, ptr %6, align 4, !tbaa !97
  %23 = sext i32 %21 to i64
  %24 = call ptr @PyLong_FromLong(i64 noundef 14)
  call void @PyStructSequence_SetItem(ptr noundef %20, i64 noundef %23, ptr noundef %24)
  %25 = load ptr, ptr %4, align 8, !tbaa !9
  %26 = load i32, ptr %6, align 4, !tbaa !97
  %27 = add i32 %26, 1
  store i32 %27, ptr %6, align 4, !tbaa !97
  %28 = sext i32 %26 to i64
  %29 = call ptr @PyLong_FromLong(i64 noundef 0)
  call void @PyStructSequence_SetItem(ptr noundef %25, i64 noundef %28, ptr noundef %29)
  %30 = load ptr, ptr %4, align 8, !tbaa !9
  %31 = load i32, ptr %6, align 4, !tbaa !97
  %32 = add i32 %31, 1
  store i32 %32, ptr %6, align 4, !tbaa !97
  %33 = sext i32 %31 to i64
  %34 = load ptr, ptr %5, align 8, !tbaa !94
  %35 = call ptr @PyUnicode_FromString(ptr noundef %34)
  call void @PyStructSequence_SetItem(ptr noundef %30, i64 noundef %33, ptr noundef %35)
  %36 = load ptr, ptr %4, align 8, !tbaa !9
  %37 = load i32, ptr %6, align 4, !tbaa !97
  %38 = add i32 %37, 1
  store i32 %38, ptr %6, align 4, !tbaa !97
  %39 = sext i32 %37 to i64
  %40 = call ptr @PyLong_FromLong(i64 noundef 4)
  call void @PyStructSequence_SetItem(ptr noundef %36, i64 noundef %39, ptr noundef %40)
  %41 = load ptr, ptr %3, align 8, !tbaa !4
  %42 = call ptr @_PyErr_Occurred(ptr noundef %41)
  %43 = icmp ne ptr %42, null
  br i1 %43, label %44, label %56

44:                                               ; preds = %14
  br label %45

45:                                               ; preds = %44
  call void @llvm.lifetime.start.p0(i64 8, ptr %8) #12
  store ptr %4, ptr %8, align 8, !tbaa !103
  call void @llvm.lifetime.start.p0(i64 8, ptr %9) #12
  %46 = load ptr, ptr %8, align 8, !tbaa !103
  %47 = load ptr, ptr %46, align 8, !tbaa !9
  store ptr %47, ptr %9, align 8, !tbaa !9
  %48 = load ptr, ptr %9, align 8, !tbaa !9
  %49 = icmp ne ptr %48, null
  br i1 %49, label %50, label %53

50:                                               ; preds = %45
  %51 = load ptr, ptr %8, align 8, !tbaa !103
  store ptr null, ptr %51, align 8, !tbaa !9
  %52 = load ptr, ptr %9, align 8, !tbaa !9
  call void @Py_DECREF(ptr noundef %52)
  br label %53

53:                                               ; preds = %50, %45
  call void @llvm.lifetime.end.p0(i64 8, ptr %9) #12
  call void @llvm.lifetime.end.p0(i64 8, ptr %8) #12
  br label %54

54:                                               ; preds = %53
  br label %55

55:                                               ; preds = %54
  store ptr null, ptr %2, align 8
  store i32 1, ptr %7, align 4
  br label %58

56:                                               ; preds = %14
  %57 = load ptr, ptr %4, align 8, !tbaa !9
  store ptr %57, ptr %2, align 8
  store i32 1, ptr %7, align 4
  br label %58

58:                                               ; preds = %56, %55, %13
  call void @llvm.lifetime.end.p0(i64 4, ptr %6) #12
  call void @llvm.lifetime.end.p0(i64 8, ptr %5) #12
  call void @llvm.lifetime.end.p0(i64 8, ptr %4) #12
  %59 = load ptr, ptr %2, align 8
  ret ptr %59
}