; Function Attrs: nounwind uwtable
define internal fastcc ptr @make_version_info(ptr noundef readonly captures(none) %0) unnamed_addr #0 {
  %2 = tail call ptr @PyStructSequence_New(ptr noundef nonnull @VersionInfoType) #15
  %3 = icmp eq ptr %2, null
  br i1 %3, label %Py_DECREF.exit, label %4

4:                                                ; preds = %1
  %5 = tail call ptr @PyLong_FromLong(i64 noundef 3) #15
  tail call void @PyStructSequence_SetItem(ptr noundef nonnull %2, i64 noundef 0, ptr noundef %5) #15
  %6 = tail call ptr @PyLong_FromLong(i64 noundef 14) #15
  tail call void @PyStructSequence_SetItem(ptr noundef nonnull %2, i64 noundef 1, ptr noundef %6) #15
  %7 = tail call ptr @PyLong_FromLong(i64 noundef 0) #15
  tail call void @PyStructSequence_SetItem(ptr noundef nonnull %2, i64 noundef 2, ptr noundef %7) #15
  %8 = tail call ptr @PyUnicode_FromString(ptr noundef nonnull @.str.500) #15
  tail call void @PyStructSequence_SetItem(ptr noundef nonnull %2, i64 noundef 3, ptr noundef %8) #15
  %9 = tail call ptr @PyLong_FromLong(i64 noundef 4) #15
  tail call void @PyStructSequence_SetItem(ptr noundef nonnull %2, i64 noundef 4, ptr noundef %9) #15
  %10 = getelementptr i8, ptr %0, i64 112
  %.val = load ptr, ptr %10, align 8, !tbaa !95
  %11 = icmp eq ptr %.val, null
  br i1 %11, label %Py_DECREF.exit, label %_PyErr_Occurred.exit

_PyErr_Occurred.exit:                             ; preds = %4
  %12 = getelementptr i8, ptr %.val, i64 8
  %.val.i = load ptr, ptr %12, align 8, !tbaa !96
  %.not = icmp eq ptr %.val.i, null
  br i1 %.not, label %Py_DECREF.exit, label %13

13:                                               ; preds = %_PyErr_Occurred.exit
  %14 = load i32, ptr %2, align 8, !tbaa !94
  %.not.i = icmp sgt i32 %14, -1
  br i1 %.not.i, label %15, label %Py_DECREF.exit

15:                                               ; preds = %13
  %16 = add nsw i32 %14, -1
  store i32 %16, ptr %2, align 8, !tbaa !94
  %17 = icmp eq i32 %16, 0
  br i1 %17, label %18, label %Py_DECREF.exit

18:                                               ; preds = %15
  tail call void @_Py_Dealloc(ptr noundef nonnull %2) #15
  br label %Py_DECREF.exit

Py_DECREF.exit:                                   ; preds = %4, %18, %15, %13, %_PyErr_Occurred.exit, %1
  %.0 = phi ptr [ null, %1 ], [ %2, %_PyErr_Occurred.exit ], [ null, %13 ], [ null, %15 ], [ null, %18 ], [ %2, %4 ]
  ret ptr %.0
}